target datalayout = "e-m:e-p270:32:32-p271:32:32-p272:64:64-i64:64-i128:128-f80:128-n8:16:32:64-S128"
target triple = "x86_64-pc-linux-gnu"

%struct.lv_subject_t = type { %struct.lv_ll_t, %union.lv_subject_value_t, %union.lv_subject_value_t, ptr, i32 }
%struct.lv_ll_t = type { i32, ptr, ptr }
%union.lv_subject_value_t = type { ptr }
%struct._lv_observer_t = type { ptr, ptr, ptr, ptr, i8 }

; Function Attrs: inlinehint nounwind uwtable
define internal void @lv_memzero(ptr noundef %0, i64 noundef %1) #1 {
  %3 = alloca ptr, align 8
  %4 = alloca i64, align 8
  store ptr %0, ptr %3, align 8, !tbaa !3
  store i64 %1, ptr %4, align 8, !tbaa !10
  %5 = load ptr, ptr %3, align 8, !tbaa !3
  %6 = load i64, ptr %4, align 8, !tbaa !10
  call void @lv_memset(ptr noundef %5, i8 noundef zeroext 0, i64 noundef %6)
  ret void
}

; Function Attrs: nounwind uwtable
define ptr @lv_subject_add_observer_obj(ptr noundef %0, ptr noundef %1, ptr noundef %2, ptr noundef %3) #0 {
  %5 = alloca ptr, align 8
  %6 = alloca ptr, align 8
  %7 = alloca ptr, align 8
  %8 = alloca ptr, align 8
  %9 = alloca ptr, align 8
  %10 = alloca ptr, align 8
  %11 = alloca i32, align 4
  store ptr %0, ptr %6, align 8, !tbaa !3
  store ptr %1, ptr %7, align 8, !tbaa !3
  store ptr %2, ptr %8, align 8, !tbaa !26
  store ptr %3, ptr %9, align 8, !tbaa !3
  br label %12

12:                                               ; preds = %4
  %13 = load ptr, ptr %6, align 8, !tbaa !3
  %14 = icmp ne ptr %13, null
  br i1 %14, label %19, label %15

15:                                               ; preds = %12
  br label %16

16:                                               ; preds = %15
  br label %17

17:                                               ; preds = %16
  br label %18

18:                                               ; preds = %17, %18
  br label %18

19:                                               ; preds = %12
  br label %20

20:                                               ; preds = %19
  %21 = load ptr, ptr %6, align 8, !tbaa !3
  %22 = getelementptr inbounds nuw %struct.lv_subject_t, ptr %21, i32 0, i32 4
  %23 = load i32, ptr %22, align 8
  %24 = and i32 %23, 15
  %25 = icmp eq i32 %24, 0
  br i1 %25, label %26, label %29

26:                                               ; preds = %20
  br label %27

27:                                               ; preds = %26
  br label %28

28:                                               ; preds = %27
  store ptr null, ptr %5, align 8
  br label %87

29:                                               ; preds = %20
  call void @llvm.lifetime.start.p0(i64 8, ptr %10) #6
  %30 = load ptr, ptr %6, align 8, !tbaa !3
  %31 = getelementptr inbounds nuw %struct.lv_subject_t, ptr %30, i32 0, i32 0
  %32 = call ptr @lv_ll_ins_tail(ptr noundef %31)
  store ptr %32, ptr %10, align 8, !tbaa !17
  br label %33

33:                                               ; preds = %29
  %34 = load ptr, ptr %10, align 8, !tbaa !17
  %35 = icmp ne ptr %34, null
  br i1 %35, label %42, label %36

36:                                               ; preds = %33
  br label %37

37:                                               ; preds = %36
  br label %38

38:                                               ; preds = %37
  br label %39

39:                                               ; preds = %38
  br label %40

40:                                               ; preds = %41, %39
  br label %41

41:                                               ; preds = %40
  br label %40

42:                                               ; preds = %33
  br label %43

43:                                               ; preds = %42
  br label %44

44:                                               ; preds = %43
  %45 = load ptr, ptr %10, align 8, !tbaa !17
  %46 = icmp eq ptr %45, null
  br i1 %46, label %47, label %48

47:                                               ; preds = %44
  store ptr null, ptr %5, align 8
  store i32 1, ptr %11, align 4
  br label %86

48:                                               ; preds = %44
  %49 = load ptr, ptr %10, align 8, !tbaa !17
  call void @lv_memzero(ptr noundef %49, i64 noundef 40)
  %50 = load ptr, ptr %6, align 8, !tbaa !3
  %51 = load ptr, ptr %10, align 8, !tbaa !17
  %52 = getelementptr inbounds nuw %struct._lv_observer_t, ptr %51, i32 0, i32 0
  store ptr %50, ptr %52, align 8, !tbaa !25
  %53 = load ptr, ptr %7, align 8, !tbaa !3
  %54 = load ptr, ptr %10, align 8, !tbaa !17
  %55 = getelementptr inbounds nuw %struct._lv_observer_t, ptr %54, i32 0, i32 1
  store ptr %53, ptr %55, align 8, !tbaa !28
  %56 = load ptr, ptr %9, align 8, !tbaa !3
  %57 = load ptr, ptr %10, align 8, !tbaa !17
  %58 = getelementptr inbounds nuw %struct._lv_observer_t, ptr %57, i32 0, i32 3
  store ptr %56, ptr %58, align 8, !tbaa !19
  %59 = load ptr, ptr %8, align 8, !tbaa !26
  %60 = load ptr, ptr %10, align 8, !tbaa !17
  %61 = getelementptr inbounds nuw %struct._lv_observer_t, ptr %60, i32 0, i32 2
  store ptr %59, ptr %61, align 8, !tbaa !21
  %62 = load ptr, ptr %10, align 8, !tbaa !17
  %63 = getelementptr inbounds nuw %struct._lv_observer_t, ptr %62, i32 0, i32 4
  %64 = load i8, ptr %63, align 8
  %65 = and i8 %64, -5
  %66 = or i8 %65, 4
  store i8 %66, ptr %63, align 8
  %67 = load ptr, ptr %8, align 8, !tbaa !26
  %68 = icmp ne ptr %67, null
  br i1 %68, label %69, label %73

69:                                               ; preds = %48
  %70 = load ptr, ptr %8, align 8, !tbaa !26
  %71 = load ptr, ptr %10, align 8, !tbaa !17
  %72 = call ptr @lv_obj_add_event_cb(ptr noundef %70, ptr noundef @unsubscribe_on_delete_cb, i32 noundef 41, ptr noundef %71)
  br label %73

73:                                               ; preds = %69, %48
  %74 = load ptr, ptr %10, align 8, !tbaa !17
  %75 = getelementptr inbounds nuw %struct._lv_observer_t, ptr %74, i32 0, i32 1
  %76 = load ptr, ptr %75, align 8, !tbaa !28
  %77 = icmp ne ptr %76, null
  br i1 %77, label %78, label %84

78:                                               ; preds = %73
  %79 = load ptr, ptr %10, align 8, !tbaa !17
  %80 = getelementptr inbounds nuw %struct._lv_observer_t, ptr %79, i32 0, i32 1
  %81 = load ptr, ptr %80, align 8, !tbaa !28
  %82 = load ptr, ptr %10, align 8, !tbaa !17
  %83 = load ptr, ptr %6, align 8, !tbaa !3
  call void %81(ptr noundef %82, ptr noundef %83)
  br label %84

84:                                               ; preds = %78, %73
  %85 = load ptr, ptr %10, align 8, !tbaa !17
  store ptr %85, ptr %5, align 8
  store i32 1, ptr %11, align 4
  br label %86

86:                                               ; preds = %84, %47
  call void @llvm.lifetime.end.p0(i64 8, ptr %10) #6
  br label %87

87:                                               ; preds = %86, %28
  %88 = load ptr, ptr %5, align 8
  ret ptr %88
}

; Function Attrs: nounwind uwtable
define ptr @lv_arc_bind_value(ptr noundef %0, ptr noundef %1) #0 {
  %3 = alloca ptr, align 8
  %4 = alloca ptr, align 8
  %5 = alloca ptr, align 8
  %6 = alloca ptr, align 8
  store ptr %0, ptr %4, align 8, !tbaa !26
  store ptr %1, ptr %5, align 8, !tbaa !3
  br label %7

7:                                                ; preds = %2
  %8 = load ptr, ptr %5, align 8, !tbaa !3
  %9 = icmp ne ptr %8, null
  br i1 %9, label %14, label %10

10:                                               ; preds = %7
  br label %11

11:                                               ; preds = %10
  br label %12

12:                                               ; preds = %11
  br label %13

13:                                               ; preds = %12, %13
  br label %13

14:                                               ; preds = %7
  br label %15

15:                                               ; preds = %14
  br label %16

16:                                               ; preds = %15
  %17 = load ptr, ptr %4, align 8, !tbaa !26
  %18 = icmp ne ptr %17, null
  br i1 %18, label %23, label %19

19:                                               ; preds = %16
  br label %20

20:                                               ; preds = %19
  br label %21

21:                                               ; preds = %20
  br label %22

22:                                               ; preds = %21, %22
  br label %22

23:                                               ; preds = %16
  br label %24

24:                                               ; preds = %23
  %25 = load ptr, ptr %5, align 8, !tbaa !3
  %26 = getelementptr inbounds nuw %struct.lv_subject_t, ptr %25, i32 0, i32 4
  %27 = load i32, ptr %26, align 8
  %28 = and i32 %27, 15
  %29 = icmp ne i32 %28, 2
  br i1 %29, label %30, label %33

30:                                               ; preds = %24
  br label %31

31:                                               ; preds = %30
  br label %32

32:                                               ; preds = %31
  store ptr null, ptr %3, align 8
  br label %41

33:                                               ; preds = %24
  %34 = load ptr, ptr %4, align 8, !tbaa !26
  %35 = load ptr, ptr %5, align 8, !tbaa !3
  %36 = call ptr @lv_obj_add_event_cb(ptr noundef %34, ptr noundef @arc_value_changed_event_cb, i32 noundef 35, ptr noundef %35)
  call void @llvm.lifetime.start.p0(i64 8, ptr %6) #6
  %37 = load ptr, ptr %5, align 8, !tbaa !3
  %38 = load ptr, ptr %4, align 8, !tbaa !26
  %39 = call ptr @lv_subject_add_observer_obj(ptr noundef %37, ptr noundef @arc_value_observer_cb, ptr noundef %38, ptr noundef null)
  store ptr %39, ptr %6, align 8, !tbaa !17
  %40 = load ptr, ptr %6, align 8, !tbaa !17
  store ptr %40, ptr %3, align 8
  call void @llvm.lifetime.end.p0(i64 8, ptr %6) #6
  br label %41

41:                                               ; preds = %33, %32
  %42 = load ptr, ptr %3, align 8
  ret ptr %42
}